target datalayout = "e-m:e-p270:32:32-p271:32:32-p272:64:64-i64:64-i128:128-f80:128-n8:16:32:64-S128"
target triple = "x86_64-pc-linux-gnu"

%class.app = type { %class.expr, ptr, i32, %struct.app_flags, [0 x ptr] }
%class.expr = type { %class.ast }
%class.ast = type { i32, i32, i32, i32 }
%struct.app_flags = type <{ i16, i8, i8 }>

; Function Attrs: mustprogress nounwind uwtable
define linkonce_odr hidden noundef ptr @_ZNK3app3endEv(ptr noundef nonnull align 8 dereferenceable(32) %0) #4 comdat align 2 {
  %2 = alloca ptr, align 8
  store ptr %0, ptr %2, align 8, !tbaa !30
  %3 = load ptr, ptr %2, align 8
  %4 = getelementptr inbounds nuw %class.app, ptr %3, i32 0, i32 4
  %5 = getelementptr inbounds [0 x ptr], ptr %4, i64 0, i64 0
  %6 = getelementptr inbounds nuw %class.app, ptr %3, i32 0, i32 2
  %7 = load i32, ptr %6, align 8, !tbaa !37
  %8 = zext i32 %7 to i64
  %9 = getelementptr inbounds nuw ptr, ptr %5, i64 %8
  ret ptr %9
}

; Function Attrs: mustprogress nounwind uwtable
define linkonce_odr hidden noundef ptr @_ZNK3app5beginEv(ptr noundef nonnull align 8 dereferenceable(32) %0) #4 comdat align 2 {
  %2 = alloca ptr, align 8
  store ptr %0, ptr %2, align 8, !tbaa !30
  %3 = load ptr, ptr %2, align 8
  %4 = getelementptr inbounds nuw %class.app, ptr %3, i32 0, i32 4
  %5 = getelementptr inbounds [0 x ptr], ptr %4, i64 0, i64 0
  ret ptr %5
}

; Function Attrs: mustprogress uwtable
define hidden noundef zeroext i1 @_ZN3smt7checker7any_argEP3appb(ptr noundef nonnull align 8 dereferenceable(104) %0, ptr noundef %1, i1 noundef zeroext %2) #6 align 2 {
  %4 = alloca i1, align 1
  %5 = alloca ptr, align 8
  %6 = alloca ptr, align 8
  %7 = alloca i8, align 1
  %8 = alloca ptr, align 8
  %9 = alloca ptr, align 8
  %10 = alloca ptr, align 8
  %11 = alloca i32, align 4
  %12 = alloca ptr, align 8
  store ptr %0, ptr %5, align 8, !tbaa !28
  store ptr %1, ptr %6, align 8, !tbaa !30
  %13 = zext i1 %2 to i8
  store i8 %13, ptr %7, align 1, !tbaa !10
  %14 = load ptr, ptr %5, align 8
  call void @llvm.lifetime.start.p0(i64 8, ptr %8) #3
  %15 = load ptr, ptr %6, align 8, !tbaa !30
  store ptr %15, ptr %8, align 8, !tbaa !30
  call void @llvm.lifetime.start.p0(i64 8, ptr %9) #3
  %16 = load ptr, ptr %8, align 8, !tbaa !30
  %17 = call noundef ptr @_ZNK3app5beginEv(ptr noundef nonnull align 8 dereferenceable(32) %16)
  store ptr %17, ptr %9, align 8, !tbaa !32
  call void @llvm.lifetime.start.p0(i64 8, ptr %10) #3
  %18 = load ptr, ptr %8, align 8, !tbaa !30
  %19 = call noundef ptr @_ZNK3app3endEv(ptr noundef nonnull align 8 dereferenceable(32) %18)
  store ptr %19, ptr %10, align 8, !tbaa !32
  br label %20

20:                                               ; preds = %37, %3
  %21 = load ptr, ptr %9, align 8, !tbaa !32
  %22 = load ptr, ptr %10, align 8, !tbaa !32
  %23 = icmp ne ptr %21, %22
  br i1 %23, label %25, label %24

24:                                               ; preds = %20
  store i32 2, ptr %11, align 4
  br label %40

25:                                               ; preds = %20
  call void @llvm.lifetime.start.p0(i64 8, ptr %12) #3
  %26 = load ptr, ptr %9, align 8, !tbaa !32
  %27 = load ptr, ptr %26, align 8, !tbaa !35
  store ptr %27, ptr %12, align 8, !tbaa !35
  %28 = load ptr, ptr %12, align 8, !tbaa !35
  %29 = load i8, ptr %7, align 1, !tbaa !10, !range !12, !noundef !13
  %30 = trunc i8 %29 to i1
  %31 = call noundef zeroext i1 @_ZN3smt7checker5checkEP4exprb(ptr noundef nonnull align 8 dereferenceable(104) %14, ptr noundef %28, i1 noundef zeroext %30)
  br i1 %31, label %32, label %33

32:                                               ; preds = %25
  store i1 true, ptr %4, align 1
  store i32 1, ptr %11, align 4
  br label %34

33:                                               ; preds = %25
  store i32 0, ptr %11, align 4
  br label %34

34:                                               ; preds = %33, %32
  call void @llvm.lifetime.end.p0(i64 8, ptr %12) #3
  %35 = load i32, ptr %11, align 4
  switch i32 %35, label %40 [
    i32 0, label %36
  ]

36:                                               ; preds = %34
  br label %37

37:                                               ; preds = %36
  %38 = load ptr, ptr %9, align 8, !tbaa !32
  %39 = getelementptr inbounds nuw ptr, ptr %38, i32 1
  store ptr %39, ptr %9, align 8, !tbaa !32
  br label %20

40:                                               ; preds = %34, %24
  call void @llvm.lifetime.end.p0(i64 8, ptr %10) #3
  call void @llvm.lifetime.end.p0(i64 8, ptr %9) #3
  call void @llvm.lifetime.end.p0(i64 8, ptr %8) #3
  %41 = load i32, ptr %11, align 4
  switch i32 %41, label %45 [
    i32 2, label %42
    i32 1, label %43
  ]

42:                                               ; preds = %40
  store i1 false, ptr %4, align 1
  br label %43

43:                                               ; preds = %42, %40
  %44 = load i1, ptr %4, align 1
  ret i1 %44

45:                                               ; preds = %40
  unreachable
}