; Function Attrs: mustprogress uwtable
define hidden noundef zeroext i1 @_ZN3smt7checker7any_argEP3appb(ptr noundef nonnull align 8 dereferenceable(104) %0, ptr noundef readonly captures(address) %1, i1 noundef zeroext %2) local_unnamed_addr #4 align 2 {
  %4 = getelementptr inbounds nuw i8, ptr %1, i64 24
  %5 = load i32, ptr %4, align 8, !tbaa !3
  %6 = zext i32 %5 to i64
  %.idx = shl nuw nsw i64 %6, 3
  %7 = getelementptr inbounds nuw i8, ptr %1, i64 %.idx
  %.ptr20 = getelementptr inbounds nuw i8, ptr %7, i64 32
  %.not15.not = icmp eq i32 %5, 0
  br i1 %.not15.not, label %._crit_edge, label %.lr.ph.preheader

.lr.ph.preheader:                                 ; preds = %3
  %.ptr = getelementptr inbounds nuw i8, ptr %1, i64 32
  br label %.lr.ph

.lr.ph:                                           ; preds = %.lr.ph, %.lr.ph.preheader
  %.01416 = phi ptr [ %.ptr, %.lr.ph.preheader ], [ %10, %.lr.ph ]
  %8 = load ptr, ptr %.01416, align 8, !tbaa !13
  %9 = tail call noundef zeroext i1 @_ZN3smt7checker5checkEP4exprb(ptr noundef nonnull align 8 dereferenceable(104) %0, ptr noundef %8, i1 noundef zeroext %2)
  %10 = getelementptr inbounds nuw i8, ptr %.01416, i64 8
  %.not.not = icmp eq ptr %10, %.ptr20
  %or.cond = select i1 %9, i1 true, i1 %.not.not
  br i1 %or.cond, label %._crit_edge, label %.lr.ph

._crit_edge:                                      ; preds = %.lr.ph, %3
  %.not.lcssa = phi i1 [ false, %3 ], [ %9, %.lr.ph ]
  ret i1 %.not.lcssa
}